target datalayout = "e-m:e-p270:32:32-p271:32:32-p272:64:64-i64:64-i128:128-f80:128-n8:16:32:64-S128"
target triple = "x86_64-unknown-linux-gnu"

%"struct.hermes::vm::VTable" = type { i64, i32, i32, ptr, ptr, ptr, ptr }
%"struct.hermes::vm::ObjectVTable" = type { %"struct.hermes::vm::VTable", ptr, ptr, ptr, ptr, ptr, ptr, ptr }
%"class.hermes::vm::GCCell" = type { %union.anon.189 }
%union.anon.189 = type { %"class.hermes::vm::KindAndSize" }
%"class.hermes::vm::KindAndSize" = type { i32 }
%"class.hermes::vm::GCPointer" = type { %"class.hermes::vm::GCPointerBase" }
%"class.hermes::vm::GCPointerBase" = type { %"class.hermes::vm::CompressedPointer" }
%"class.hermes::vm::CompressedPointer" = type { %"class.hermes::vm::BasedPointer" }
%"class.hermes::vm::BasedPointer" = type { i32 }
%"class.hermes::vm::Metadata::Builder" = type { ptr, %"class.std::map", %"class.std::map", %"class.std::map", %"class.std::map", %"class.hermes::OptValue", [3 x i8], %"class.hermes::OptValue.197", ptr }
%"class.std::map" = type { %"class.std::_Rb_tree" }
%"class.std::_Rb_tree" = type { %"struct.std::_Rb_tree<unsigned char, std::pair<const unsigned char, const char *>, std::_Select1st<std::pair<const unsigned char, const char *>>, std::less<unsigned char>>::_Rb_tree_impl" }
%"struct.std::_Rb_tree<unsigned char, std::pair<const unsigned char, const char *>, std::_Select1st<std::pair<const unsigned char, const char *>>, std::less<unsigned char>>::_Rb_tree_impl" = type { %"struct.std::_Rb_tree_key_compare", %"struct.std::_Rb_tree_header" }
%"struct.std::_Rb_tree_key_compare" = type { %"struct.std::less" }
%"struct.std::less" = type { i8 }
%"struct.std::_Rb_tree_header" = type { %"struct.std::_Rb_tree_node_base", i64 }
%"struct.std::_Rb_tree_node_base" = type { i32, ptr, ptr, ptr }
%"class.hermes::OptValue" = type { %"struct.hermes::vm::Metadata::ArrayData", i8 }
%"struct.hermes::vm::Metadata::ArrayData" = type { i8, i8, i8, i8 }
%"class.hermes::OptValue.197" = type <{ i32, i8, [3 x i8] }>
%"class.hermes::vm::Callable" = type { %"class.hermes::vm::JSObject", %"class.hermes::vm::GCPointer" }
%"class.hermes::vm::JSObject" = type { %"class.hermes::vm::GCCell", %"struct.hermes::vm::ObjectFlags", %"class.hermes::vm::GCPointer.198", %"class.hermes::vm::GCPointer.199", %"class.hermes::vm::GCPointer.200" }
%"struct.hermes::vm::ObjectFlags" = type { i32 }
%"class.hermes::vm::GCPointer.198" = type { %"class.hermes::vm::GCPointerBase" }
%"class.hermes::vm::GCPointer.199" = type { %"class.hermes::vm::GCPointerBase" }
%"class.hermes::vm::GCPointer.200" = type { %"class.hermes::vm::GCPointerBase" }
%"class.hermes::vm::JSFunction" = type <{ %"class.hermes::vm::Callable", %"class.hermes::vm::XorPtr", %"class.hermes::vm::GCPointer.203", [4 x i8] }>
%"class.hermes::vm::XorPtr" = type { i64 }
%"class.hermes::vm::GCPointer.203" = type { %"class.hermes::vm::GCPointerBase" }
%"class.hermes::vm::GCPointer.212" = type { %"class.hermes::vm::GCPointerBase" }
%"class.hermes::vm::HermesValue32" = type { i32 }
%"class.hermes::vm::GeneratorInnerFunction" = type <{ %"class.hermes::vm::JSFunction.base", i32, i32, %"class.hermes::vm::GCPointer.212", %"class.hermes::vm::GCHermesValueBase.255", i32, i32, i8, [3 x i8] }>
%"class.hermes::vm::JSFunction.base" = type <{ %"class.hermes::vm::Callable", %"class.hermes::vm::XorPtr", %"class.hermes::vm::GCPointer.203" }>
%"class.hermes::vm::GCHermesValueBase.255" = type { %"class.hermes::vm::HermesValue32" }

@_ZN6hermes2vm8JSObject2vtE = external global %"struct.hermes::vm::ObjectVTable", align 8
@.str.1 = private unnamed_addr constant [12 x i8] c"environment\00", align 1
@.str.8 = private unnamed_addr constant [7 x i8] c"domain\00", align 1
@.str.9 = private unnamed_addr constant [13 x i8] c"savedContext\00", align 1
@.str.10 = private unnamed_addr constant [7 x i8] c"result\00", align 1

; Function Attrs: mustprogress nounwind uwtable
define linkonce_odr hidden noundef i32 @_ZN6hermes2vm8JSObject15numOverlapSlotsINS0_8CallableEEEjv() #0 comdat align 2 {
entry:
  %aligned = alloca i64, align 8
  %excess = alloca i64, align 8
  %ref.tmp = alloca i64, align 8
  %call = call noundef i64 @_ZN4llvh7alignToILm4EEEmm(i64 noundef 24)
  store i64 %call, ptr %aligned, align 8
  %0 = load i64, ptr %aligned, align 8
  %call1 = call noundef i64 @_ZN6hermes2vm8JSObject17directPropsOffsetEv()
  %sub = sub i64 %0, %call1
  %div = udiv i64 %sub, 4
  store i64 %div, ptr %excess, align 8
  store i64 5, ptr %ref.tmp, align 8
  %call2 = call noundef nonnull align 8 dereferenceable(8) ptr @_ZSt3minImERKT_S2_S2_(ptr noundef nonnull align 8 dereferenceable(8) %excess, ptr noundef nonnull align 8 dereferenceable(8) %ref.tmp)
  %1 = load i64, ptr %call2, align 8
  %conv = trunc i64 %1 to i32
  ret i32 %conv
}

; Function Attrs: mustprogress nounwind uwtable
define hidden void @_ZN6hermes2vm17CallableBuildMetaEPKNS0_6GCCellERNS0_8Metadata7BuilderE(ptr noundef %cell, ptr noundef nonnull align 8 dereferenceable(224) %mb) #0 {
entry:
  %cell.addr = alloca ptr, align 8
  %mb.addr = alloca ptr, align 8
  %self = alloca ptr, align 8
  store ptr %cell, ptr %cell.addr, align 8
  store ptr %mb, ptr %mb.addr, align 8
  %0 = load ptr, ptr %mb.addr, align 8
  %call = call noundef i32 @_ZN6hermes2vm8JSObject15numOverlapSlotsINS0_8CallableEEEjv()
  call void @_ZN6hermes2vm8Metadata7Builder23addJSObjectOverlapSlotsEj(ptr noundef nonnull align 8 dereferenceable(224) %0, i32 noundef %call)
  %1 = load ptr, ptr %cell.addr, align 8
  %2 = load ptr, ptr %mb.addr, align 8
  call void @_ZN6hermes2vm17JSObjectBuildMetaEPKNS0_6GCCellERNS0_8Metadata7BuilderE(ptr noundef %1, ptr noundef nonnull align 8 dereferenceable(224) %2)
  %3 = load ptr, ptr %cell.addr, align 8
  store ptr %3, ptr %self, align 8
  %4 = load ptr, ptr %mb.addr, align 8
  call void @_ZN6hermes2vm8Metadata7Builder9setVTableEPKNS0_6VTableE(ptr noundef nonnull align 8 dereferenceable(224) %4, ptr noundef @_ZN6hermes2vm8JSObject2vtE)
  %5 = load ptr, ptr %mb.addr, align 8
  %6 = load ptr, ptr %self, align 8
  %environment_ = getelementptr inbounds %"class.hermes::vm::Callable", ptr %6, i32 0, i32 1
  call void @_ZN6hermes2vm8Metadata7Builder8addFieldEPKcPKNS0_13GCPointerBaseE(ptr noundef nonnull align 8 dereferenceable(224) %5, ptr noundef @.str.1, ptr noundef %environment_)
  ret void
}

; Function Attrs: mustprogress nounwind uwtable
define linkonce_odr hidden noundef i32 @_ZN6hermes2vm8JSObject15numOverlapSlotsINS0_10JSFunctionEEEjv() #0 comdat align 2 {
entry:
  %aligned = alloca i64, align 8
  %excess = alloca i64, align 8
  %ref.tmp = alloca i64, align 8
  %call = call noundef i64 @_ZN4llvh7alignToILm4EEEmm(i64 noundef 40)
  store i64 %call, ptr %aligned, align 8
  %0 = load i64, ptr %aligned, align 8
  %call1 = call noundef i64 @_ZN6hermes2vm8JSObject17directPropsOffsetEv()
  %sub = sub i64 %0, %call1
  %div = udiv i64 %sub, 4
  store i64 %div, ptr %excess, align 8
  store i64 5, ptr %ref.tmp, align 8
  %call2 = call noundef nonnull align 8 dereferenceable(8) ptr @_ZSt3minImERKT_S2_S2_(ptr noundef nonnull align 8 dereferenceable(8) %excess, ptr noundef nonnull align 8 dereferenceable(8) %ref.tmp)
  %1 = load i64, ptr %call2, align 8
  %conv = trunc i64 %1 to i32
  ret i32 %conv
}

; Function Attrs: mustprogress nounwind uwtable
define linkonce_odr hidden void @_ZN6hermes8OptValueIjEC2ERKj(ptr noundef nonnull align 4 dereferenceable(5) %this, ptr noundef nonnull align 4 dereferenceable(4) %v) unnamed_addr #0 comdat align 2 {
entry:
  %this.addr = alloca ptr, align 8
  %v.addr = alloca ptr, align 8
  store ptr %this, ptr %this.addr, align 8
  store ptr %v, ptr %v.addr, align 8
  %this1 = load ptr, ptr %this.addr, align 8
  %value_ = getelementptr inbounds %"class.hermes::OptValue.197", ptr %this1, i32 0, i32 0
  %0 = load ptr, ptr %v.addr, align 8
  %1 = load i32, ptr %0, align 4
  store i32 %1, ptr %value_, align 4
  %hasValue_ = getelementptr inbounds %"class.hermes::OptValue.197", ptr %this1, i32 0, i32 1
  store i8 1, ptr %hasValue_, align 4
  ret void
}

; Function Attrs: mustprogress nounwind uwtable
define linkonce_odr hidden noundef zeroext i1 @_ZNK6hermes8OptValueIjEcvbEv(ptr noundef nonnull align 4 dereferenceable(5) %this) #0 comdat align 2 {
entry:
  %this.addr = alloca ptr, align 8
  store ptr %this, ptr %this.addr, align 8
  %this1 = load ptr, ptr %this.addr, align 8
  %hasValue_ = getelementptr inbounds %"class.hermes::OptValue.197", ptr %this1, i32 0, i32 1
  %0 = load i8, ptr %hasValue_, align 4
  %tobool = trunc i8 %0 to i1
  ret i1 %tobool
}

; Function Attrs: mustprogress nounwind uwtable
define linkonce_odr noundef nonnull align 8 dereferenceable(8) ptr @_ZSt3minImERKT_S2_S2_(ptr noundef nonnull align 8 dereferenceable(8) %__a, ptr noundef nonnull align 8 dereferenceable(8) %__b) #0 comdat {
entry:
  %retval = alloca ptr, align 8
  %__a.addr = alloca ptr, align 8
  %__b.addr = alloca ptr, align 8
  store ptr %__a, ptr %__a.addr, align 8
  store ptr %__b, ptr %__b.addr, align 8
  %0 = load ptr, ptr %__b.addr, align 8
  %1 = load i64, ptr %0, align 8
  %2 = load ptr, ptr %__a.addr, align 8
  %3 = load i64, ptr %2, align 8
  %cmp = icmp ult i64 %1, %3
  br i1 %cmp, label %if.then, label %if.end

if.then:                                          ; preds = %entry
  %4 = load ptr, ptr %__b.addr, align 8
  store ptr %4, ptr %retval, align 8
  br label %return

if.end:                                           ; preds = %entry
  %5 = load ptr, ptr %__a.addr, align 8
  store ptr %5, ptr %retval, align 8
  br label %return

return:                                           ; preds = %if.end, %if.then
  %6 = load ptr, ptr %retval, align 8
  ret ptr %6
}

; Function Attrs: mustprogress nounwind uwtable
define linkonce_odr hidden noundef i64 @_ZN6hermes2vm8JSObject17directPropsOffsetEv() #0 comdat align 2 {
entry:
  %call = call noundef i64 @_ZN4llvh7alignToILm4EEEmm(i64 noundef 20)
  ret i64 %call
}

; Function Attrs: mustprogress nounwind uwtable
define linkonce_odr hidden noundef i64 @_ZN4llvh7alignToILm4EEEmm(i64 noundef %Value) #0 comdat {
entry:
  %Value.addr = alloca i64, align 8
  store i64 %Value, ptr %Value.addr, align 8
  %0 = load i64, ptr %Value.addr, align 8
  %add = add i64 %0, 4
  %sub = sub i64 %add, 1
  %div = udiv i64 %sub, 4
  %mul = mul i64 %div, 4
  ret i64 %mul
}

; Function Attrs: mustprogress nounwind uwtable
define linkonce_odr hidden void @_ZN6hermes2vm8Metadata7Builder9setVTableEPKNS0_6VTableE(ptr noundef nonnull align 8 dereferenceable(224) %this, ptr noundef %vtp) #0 comdat align 2 {
entry:
  %this.addr = alloca ptr, align 8
  %vtp.addr = alloca ptr, align 8
  store ptr %this, ptr %this.addr, align 8
  store ptr %vtp, ptr %vtp.addr, align 8
  %this1 = load ptr, ptr %this.addr, align 8
  %0 = load ptr, ptr %vtp.addr, align 8
  %vtp_ = getelementptr inbounds %"class.hermes::vm::Metadata::Builder", ptr %this1, i32 0, i32 8
  store ptr %0, ptr %vtp_, align 8
  ret void
}

; Function Attrs: mustprogress nounwind uwtable
define hidden void @_ZN6hermes2vm19JSFunctionBuildMetaEPKNS0_6GCCellERNS0_8Metadata7BuilderE(ptr noundef %cell, ptr noundef nonnull align 8 dereferenceable(224) %mb) #0 {
entry:
  %cell.addr = alloca ptr, align 8
  %mb.addr = alloca ptr, align 8
  %self = alloca ptr, align 8
  store ptr %cell, ptr %cell.addr, align 8
  store ptr %mb, ptr %mb.addr, align 8
  %0 = load ptr, ptr %mb.addr, align 8
  %call = call noundef i32 @_ZN6hermes2vm8JSObject15numOverlapSlotsINS0_10JSFunctionEEEjv()
  call void @_ZN6hermes2vm8Metadata7Builder23addJSObjectOverlapSlotsEj(ptr noundef nonnull align 8 dereferenceable(224) %0, i32 noundef %call)
  %1 = load ptr, ptr %cell.addr, align 8
  %2 = load ptr, ptr %mb.addr, align 8
  call void @_ZN6hermes2vm17CallableBuildMetaEPKNS0_6GCCellERNS0_8Metadata7BuilderE(ptr noundef %1, ptr noundef nonnull align 8 dereferenceable(224) %2)
  %3 = load ptr, ptr %cell.addr, align 8
  store ptr %3, ptr %self, align 8
  %4 = load ptr, ptr %mb.addr, align 8
  %5 = load ptr, ptr %self, align 8
  %domain_ = getelementptr inbounds %"class.hermes::vm::JSFunction", ptr %5, i32 0, i32 2
  call void @_ZN6hermes2vm8Metadata7Builder8addFieldEPKcPKNS0_13GCPointerBaseE(ptr noundef nonnull align 8 dereferenceable(224) %4, ptr noundef @.str.8, ptr noundef %domain_)
  %6 = load ptr, ptr %mb.addr, align 8
  call void @_ZN6hermes2vm8Metadata7Builder9setVTableEPKNS0_6VTableE(ptr noundef nonnull align 8 dereferenceable(224) %6, ptr noundef @_ZN6hermes2vm10JSFunction2vtE)
  ret void
}

; Function Attrs: mustprogress nounwind uwtable
define linkonce_odr hidden void @_ZN6hermes2vm8Metadata7Builder23addJSObjectOverlapSlotsEj(ptr noundef nonnull align 8 dereferenceable(224) %this, i32 noundef %num) #0 comdat align 2 {
entry:
  %this.addr = alloca ptr, align 8
  %num.addr = alloca i32, align 4
  %ref.tmp = alloca %"class.hermes::OptValue.197", align 4
  store ptr %this, ptr %this.addr, align 8
  store i32 %num, ptr %num.addr, align 4
  %this1 = load ptr, ptr %this.addr, align 8
  %jsObjectOverlapSlots_ = getelementptr inbounds %"class.hermes::vm::Metadata::Builder", ptr %this1, i32 0, i32 7
  %call = call noundef zeroext i1 @_ZNK6hermes8OptValueIjEcvbEv(ptr noundef nonnull align 4 dereferenceable(5) %jsObjectOverlapSlots_)
  br i1 %call, label %if.else, label %if.then

if.then:                                          ; preds = %entry
  call void @_ZN6hermes8OptValueIjEC2ERKj(ptr noundef nonnull align 4 dereferenceable(5) %ref.tmp, ptr noundef nonnull align 4 dereferenceable(4) %num.addr)
  %jsObjectOverlapSlots_2 = getelementptr inbounds %"class.hermes::vm::Metadata::Builder", ptr %this1, i32 0, i32 7
  call void @llvm.memcpy.p0.p0.i64(ptr align 8 %jsObjectOverlapSlots_2, ptr align 4 %ref.tmp, i64 5, i1 false)
  br label %if.end

if.else:                                          ; preds = %entry
  br label %if.end

if.end:                                           ; preds = %if.else, %if.then
  ret void
}

; Function Attrs: mustprogress nounwind uwtable
define linkonce_odr hidden noundef i32 @_ZN6hermes2vm8JSObject15numOverlapSlotsINS0_22GeneratorInnerFunctionEEEjv() #0 comdat align 2 {
entry:
  %aligned = alloca i64, align 8
  %excess = alloca i64, align 8
  %ref.tmp = alloca i64, align 8
  %call = call noundef i64 @_ZN4llvh7alignToILm4EEEmm(i64 noundef 64)
  store i64 %call, ptr %aligned, align 8
  %0 = load i64, ptr %aligned, align 8
  %call1 = call noundef i64 @_ZN6hermes2vm8JSObject17directPropsOffsetEv()
  %sub = sub i64 %0, %call1
  %div = udiv i64 %sub, 4
  store i64 %div, ptr %excess, align 8
  store i64 5, ptr %ref.tmp, align 8
  %call2 = call noundef nonnull align 8 dereferenceable(8) ptr @_ZSt3minImERKT_S2_S2_(ptr noundef nonnull align 8 dereferenceable(8) %excess, ptr noundef nonnull align 8 dereferenceable(8) %ref.tmp)
  %1 = load i64, ptr %call2, align 8
  %conv = trunc i64 %1 to i32
  ret i32 %conv
}

; Function Attrs: mustprogress nounwind uwtable
define hidden void @_ZN6hermes2vm31GeneratorInnerFunctionBuildMetaEPKNS0_6GCCellERNS0_8Metadata7BuilderE(ptr noundef %cell, ptr noundef nonnull align 8 dereferenceable(224) %mb) #0 {
entry:
  %cell.addr = alloca ptr, align 8
  %mb.addr = alloca ptr, align 8
  %self = alloca ptr, align 8
  store ptr %cell, ptr %cell.addr, align 8
  store ptr %mb, ptr %mb.addr, align 8
  %0 = load ptr, ptr %mb.addr, align 8
  %call = call noundef i32 @_ZN6hermes2vm8JSObject15numOverlapSlotsINS0_22GeneratorInnerFunctionEEEjv()
  call void @_ZN6hermes2vm8Metadata7Builder23addJSObjectOverlapSlotsEj(ptr noundef nonnull align 8 dereferenceable(224) %0, i32 noundef %call)
  %1 = load ptr, ptr %cell.addr, align 8
  %2 = load ptr, ptr %mb.addr, align 8
  call void @_ZN6hermes2vm19JSFunctionBuildMetaEPKNS0_6GCCellERNS0_8Metadata7BuilderE(ptr noundef %1, ptr noundef nonnull align 8 dereferenceable(224) %2)
  %3 = load ptr, ptr %cell.addr, align 8
  store ptr %3, ptr %self, align 8
  %4 = load ptr, ptr %mb.addr, align 8
  call void @_ZN6hermes2vm8Metadata7Builder9setVTableEPKNS0_6VTableE(ptr noundef nonnull align 8 dereferenceable(224) %4, ptr noundef @_ZN6hermes2vm22GeneratorInnerFunction2vtE)
  %5 = load ptr, ptr %mb.addr, align 8
  %6 = load ptr, ptr %self, align 8
  %savedContext_ = getelementptr inbounds %"class.hermes::vm::GeneratorInnerFunction", ptr %6, i32 0, i32 3
  call void @_ZN6hermes2vm8Metadata7Builder8addFieldEPKcPKNS0_13GCPointerBaseE(ptr noundef nonnull align 8 dereferenceable(224) %5, ptr noundef @.str.9, ptr noundef %savedContext_)
  %7 = load ptr, ptr %mb.addr, align 8
  %8 = load ptr, ptr %self, align 8
  %result_ = getelementptr inbounds %"class.hermes::vm::GeneratorInnerFunction", ptr %8, i32 0, i32 4
  call void @_ZN6hermes2vm8Metadata7Builder8addFieldEPKcPKNS0_17GCHermesValueBaseINS0_13HermesValue32EEE(ptr noundef nonnull align 8 dereferenceable(224) %7, ptr noundef @.str.10, ptr noundef %result_)
  ret void
}